target datalayout = "e-m:e-p270:32:32-p271:32:32-p272:64:64-i64:64-i128:128-f80:128-n8:16:32:64-S128"
target triple = "x86_64-pc-linux-gnu"

%struct.JSValue = type { %union.JSValueUnion, i64 }
%union.JSValueUnion = type { double }
%struct.JSSTDFile = type { ptr, i32, i32 }
%struct.DynBuf = type { ptr, i64, i64, i32, ptr, ptr }

@js_std_file_class_id = internal global i32 0, align 4
@.str.41 = private unnamed_addr constant [20 x i8] c"invalid file handle\00", align 1

; Function Attrs: nounwind uwtable
define internal void @js_std_dbuf_init(ptr noundef %0, ptr noundef %1) #0 {
  %3 = alloca ptr, align 8
  %4 = alloca ptr, align 8
  store ptr %0, ptr %3, align 8
  store ptr %1, ptr %4, align 8
  %5 = load ptr, ptr %4, align 8
  %6 = load ptr, ptr %3, align 8
  %7 = call ptr @JS_GetRuntime(ptr noundef %6)
  call void @dbuf_init2(ptr noundef %5, ptr noundef %7, ptr noundef @js_realloc_rt)
  ret void
}

; Function Attrs: nounwind uwtable
define internal i32 @JS_IsUndefined(i64 %0, i64 %1) #0 {
  %3 = alloca %struct.JSValue, align 8
  %4 = getelementptr inbounds { i64, i64 }, ptr %3, i32 0, i32 0
  store i64 %0, ptr %4, align 8
  %5 = getelementptr inbounds { i64, i64 }, ptr %3, i32 0, i32 1
  store i64 %1, ptr %5, align 8
  %6 = getelementptr inbounds %struct.JSValue, ptr %3, i32 0, i32 1
  %7 = load i64, ptr %6, align 8
  %8 = trunc i64 %7 to i32
  %9 = icmp eq i32 %8, 3
  %10 = zext i1 %9 to i32
  ret i32 %10
}

; Function Attrs: nounwind uwtable
define internal ptr @js_std_file_get(ptr noundef %0, i64 %1, i64 %2) #0 {
  %4 = alloca ptr, align 8
  %5 = alloca %struct.JSValue, align 8
  %6 = alloca ptr, align 8
  %7 = alloca ptr, align 8
  %8 = alloca %struct.JSValue, align 8
  %9 = getelementptr inbounds { i64, i64 }, ptr %5, i32 0, i32 0
  store i64 %1, ptr %9, align 8
  %10 = getelementptr inbounds { i64, i64 }, ptr %5, i32 0, i32 1
  store i64 %2, ptr %10, align 8
  store ptr %0, ptr %6, align 8
  %11 = load ptr, ptr %6, align 8
  %12 = load i32, ptr @js_std_file_class_id, align 4
  %13 = getelementptr inbounds { i64, i64 }, ptr %5, i32 0, i32 0
  %14 = load i64, ptr %13, align 8
  %15 = getelementptr inbounds { i64, i64 }, ptr %5, i32 0, i32 1
  %16 = load i64, ptr %15, align 8
  %17 = call ptr @JS_GetOpaque2(ptr noundef %11, i64 %14, i64 %16, i32 noundef %12)
  store ptr %17, ptr %7, align 8
  %18 = load ptr, ptr %7, align 8
  %19 = icmp ne ptr %18, null
  br i1 %19, label %21, label %20

20:                                               ; preds = %3
  store ptr null, ptr %4, align 8
  br label %37

21:                                               ; preds = %3
  %22 = load ptr, ptr %7, align 8
  %23 = getelementptr inbounds %struct.JSSTDFile, ptr %22, i32 0, i32 0
  %24 = load ptr, ptr %23, align 8
  %25 = icmp ne ptr %24, null
  br i1 %25, label %33, label %26

26:                                               ; preds = %21
  %27 = load ptr, ptr %6, align 8
  %28 = call { i64, i64 } (ptr, ptr, ...) @JS_ThrowTypeError(ptr noundef %27, ptr noundef @.str.41)
  %29 = getelementptr inbounds { i64, i64 }, ptr %8, i32 0, i32 0
  %30 = extractvalue { i64, i64 } %28, 0
  store i64 %30, ptr %29, align 8
  %31 = getelementptr inbounds { i64, i64 }, ptr %8, i32 0, i32 1
  %32 = extractvalue { i64, i64 } %28, 1
  store i64 %32, ptr %31, align 8
  store ptr null, ptr %4, align 8
  br label %37

33:                                               ; preds = %21
  %34 = load ptr, ptr %7, align 8
  %35 = getelementptr inbounds %struct.JSSTDFile, ptr %34, i32 0, i32 0
  %36 = load ptr, ptr %35, align 8
  store ptr %36, ptr %4, align 8
  br label %37

37:                                               ; preds = %33, %26, %20
  %38 = load ptr, ptr %4, align 8
  ret ptr %38
}

; Function Attrs: nounwind uwtable
define internal { i64, i64 } @js_std_file_readAsString(ptr noundef %0, i64 %1, i64 %2, i32 noundef %3, ptr noundef %4) #0 {
  %6 = alloca %struct.JSValue, align 8
  %7 = alloca %struct.JSValue, align 8
  %8 = alloca ptr, align 8
  %9 = alloca i32, align 4
  %10 = alloca ptr, align 8
  %11 = alloca ptr, align 8
  %12 = alloca i32, align 4
  %13 = alloca %struct.DynBuf, align 8
  %14 = alloca %struct.JSValue, align 8
  %15 = alloca i64, align 8
  %16 = alloca i64, align 8
  %17 = alloca %struct.JSValue, align 8
  %18 = alloca %struct.JSValue, align 8
  %19 = alloca %struct.JSValue, align 8
  %20 = getelementptr inbounds { i64, i64 }, ptr %7, i32 0, i32 0
  store i64 %1, ptr %20, align 8
  %21 = getelementptr inbounds { i64, i64 }, ptr %7, i32 0, i32 1
  store i64 %2, ptr %21, align 8
  store ptr %0, ptr %8, align 8
  store i32 %3, ptr %9, align 4
  store ptr %4, ptr %10, align 8
  %22 = load ptr, ptr %8, align 8
  %23 = getelementptr inbounds { i64, i64 }, ptr %7, i32 0, i32 0
  %24 = load i64, ptr %23, align 8
  %25 = getelementptr inbounds { i64, i64 }, ptr %7, i32 0, i32 1
  %26 = load i64, ptr %25, align 8
  %27 = call ptr @js_std_file_get(ptr noundef %22, i64 %24, i64 %26)
  store ptr %27, ptr %11, align 8
  %28 = load ptr, ptr %11, align 8
  %29 = icmp ne ptr %28, null
  br i1 %29, label %33, label %30

30:                                               ; preds = %5
  %31 = getelementptr inbounds %struct.JSValue, ptr %6, i32 0, i32 0
  store i32 0, ptr %31, align 8
  %32 = getelementptr inbounds %struct.JSValue, ptr %6, i32 0, i32 1
  store i64 6, ptr %32, align 8
  br label %100

33:                                               ; preds = %5
  %34 = load i32, ptr %9, align 4
  %35 = icmp sge i32 %34, 1
  br i1 %35, label %36, label %39

36:                                               ; preds = %33
  %37 = load ptr, ptr %10, align 8
  %38 = getelementptr %struct.JSValue, ptr %37, i64 0
  call void @llvm.memcpy.p0.p0.i64(ptr align 8 %17, ptr align 8 %38, i64 16, i1 false)
  br label %42

39:                                               ; preds = %33
  %40 = getelementptr inbounds %struct.JSValue, ptr %18, i32 0, i32 0
  store i32 0, ptr %40, align 8
  %41 = getelementptr inbounds %struct.JSValue, ptr %18, i32 0, i32 1
  store i64 3, ptr %41, align 8
  call void @llvm.memcpy.p0.p0.i64(ptr align 8 %17, ptr align 8 %18, i64 16, i1 false)
  br label %42

42:                                               ; preds = %39, %36
  store i64 -1, ptr %16, align 8
  %43 = getelementptr inbounds { i64, i64 }, ptr %17, i32 0, i32 0
  %44 = load i64, ptr %43, align 8
  %45 = getelementptr inbounds { i64, i64 }, ptr %17, i32 0, i32 1
  %46 = load i64, ptr %45, align 8
  %47 = call i32 @JS_IsUndefined(i64 %44, i64 %46)
  %48 = icmp ne i32 %47, 0
  br i1 %48, label %67, label %49

49:                                               ; preds = %42
  %50 = load ptr, ptr %8, align 8
  %51 = getelementptr inbounds { i64, i64 }, ptr %17, i32 0, i32 0
  %52 = load i64, ptr %51, align 8
  %53 = getelementptr inbounds { i64, i64 }, ptr %17, i32 0, i32 1
  %54 = load i64, ptr %53, align 8
  %55 = call i32 @JS_ToIndex(ptr noundef %50, ptr noundef %15, i64 %52, i64 %54)
  %56 = icmp ne i32 %55, 0
  br i1 %56, label %57, label %60

57:                                               ; preds = %49
  %58 = getelementptr inbounds %struct.JSValue, ptr %6, i32 0, i32 0
  store i32 0, ptr %58, align 8
  %59 = getelementptr inbounds %struct.JSValue, ptr %6, i32 0, i32 1
  store i64 6, ptr %59, align 8
  br label %100

60:                                               ; preds = %49
  %61 = load i64, ptr %15, align 8
  %62 = load i64, ptr %16, align 8
  %63 = icmp ult i64 %61, %62
  br i1 %63, label %64, label %66

64:                                               ; preds = %60
  %65 = load i64, ptr %15, align 8
  store i64 %65, ptr %16, align 8
  br label %66

66:                                               ; preds = %64, %60
  br label %67

67:                                               ; preds = %66, %42
  %68 = load ptr, ptr %8, align 8
  call void @js_std_dbuf_init(ptr noundef %68, ptr noundef %13)
  br label %69

69:                                               ; preds = %86, %67
  %70 = load i64, ptr %16, align 8
  %71 = icmp ne i64 %70, 0
  br i1 %71, label %72, label %89

72:                                               ; preds = %69
  %73 = load ptr, ptr %11, align 8
  %74 = call i32 @fgetc(ptr noundef %73)
  store i32 %74, ptr %12, align 4
  %75 = load i32, ptr %12, align 4
  %76 = icmp eq i32 %75, -1
  br i1 %76, label %77, label %78

77:                                               ; preds = %72
  br label %89

78:                                               ; preds = %72
  %79 = load i32, ptr %12, align 4
  %80 = trunc i32 %79 to i8
  %81 = call i32 @dbuf_putc(ptr noundef %13, i8 noundef zeroext %80)
  %82 = icmp ne i32 %81, 0
  br i1 %82, label %83, label %86

83:                                               ; preds = %78
  call void @dbuf_free(ptr noundef %13)
  %84 = getelementptr inbounds %struct.JSValue, ptr %6, i32 0, i32 0
  store i32 0, ptr %84, align 8
  %85 = getelementptr inbounds %struct.JSValue, ptr %6, i32 0, i32 1
  store i64 6, ptr %85, align 8
  br label %100

86:                                               ; preds = %78
  %87 = load i64, ptr %16, align 8
  %88 = add i64 %87, -1
  store i64 %88, ptr %16, align 8
  br label %69, !llvm.loop !16

89:                                               ; preds = %77, %69
  %90 = load ptr, ptr %8, align 8
  %91 = getelementptr inbounds %struct.DynBuf, ptr %13, i32 0, i32 0
  %92 = load ptr, ptr %91, align 8
  %93 = getelementptr inbounds %struct.DynBuf, ptr %13, i32 0, i32 1
  %94 = load i64, ptr %93, align 8
  %95 = call { i64, i64 } @JS_NewStringLen(ptr noundef %90, ptr noundef %92, i64 noundef %94)
  %96 = getelementptr inbounds { i64, i64 }, ptr %19, i32 0, i32 0
  %97 = extractvalue { i64, i64 } %95, 0
  store i64 %97, ptr %96, align 8
  %98 = getelementptr inbounds { i64, i64 }, ptr %19, i32 0, i32 1
  %99 = extractvalue { i64, i64 } %95, 1
  store i64 %99, ptr %98, align 8
  call void @llvm.memcpy.p0.p0.i64(ptr align 8 %14, ptr align 8 %19, i64 16, i1 false)
  call void @dbuf_free(ptr noundef %13)
  call void @llvm.memcpy.p0.p0.i64(ptr align 8 %6, ptr align 8 %14, i64 16, i1 false)
  br label %100

100:                                              ; preds = %89, %83, %57, %30
  %101 = load { i64, i64 }, ptr %6, align 8
  ret { i64, i64 } %101
}