; Function Attrs: nounwind uwtable
define internal { i64, i64 } @js_std_file_readAsString(ptr noundef %0, i64 %1, i64 %2, i32 noundef %3, ptr nocapture noundef readonly %4) #0 {
  %6 = alloca %struct.DynBuf, align 8
  %7 = alloca i64, align 8
  %8 = load i32, ptr @js_std_file_class_id, align 4
  %9 = tail call ptr @JS_GetOpaque2(ptr noundef %0, i64 %1, i64 %2, i32 noundef %8) #29
  %.not.i = icmp eq ptr %9, null
  br i1 %.not.i, label %js_std_file_get.exit.thread, label %10

10:                                               ; preds = %5
  %11 = load ptr, ptr %9, align 8
  %.not9.i = icmp eq ptr %11, null
  br i1 %.not9.i, label %12, label %js_std_file_get.exit

12:                                               ; preds = %10
  %13 = tail call { i64, i64 } (ptr, ptr, ...) @JS_ThrowTypeError(ptr noundef %0, ptr noundef nonnull @.str.41) #29
  br label %js_std_file_get.exit.thread

js_std_file_get.exit:                             ; preds = %10
  %14 = icmp sgt i32 %3, 0
  br i1 %14, label %15, label %.thread

15:                                               ; preds = %js_std_file_get.exit
  %.sroa.5.0..sroa_idx = getelementptr inbounds i8, ptr %4, i64 8
  %.sroa.5.0.copyload = load i64, ptr %.sroa.5.0..sroa_idx, align 8
  %16 = and i64 %.sroa.5.0.copyload, 4294967295
  %.not = icmp eq i64 %16, 3
  br i1 %.not, label %.thread, label %17

17:                                               ; preds = %15
  %.sroa.04.0.copyload = load i64, ptr %4, align 8
  %18 = call i32 @JS_ToIndex(ptr noundef %0, ptr noundef nonnull %7, i64 %.sroa.04.0.copyload, i64 %.sroa.5.0.copyload) #29
  %.not38 = icmp eq i32 %18, 0
  br i1 %.not38, label %19, label %js_std_file_get.exit.thread

19:                                               ; preds = %17
  %20 = load i64, ptr %7, align 8
  br label %.thread

.thread:                                          ; preds = %js_std_file_get.exit, %19, %15
  %.0 = phi i64 [ -1, %15 ], [ %20, %19 ], [ -1, %js_std_file_get.exit ]
  %21 = call ptr @JS_GetRuntime(ptr noundef %0) #29
  call void @dbuf_init2(ptr noundef nonnull %6, ptr noundef %21, ptr noundef nonnull @js_realloc_rt) #29
  %.not4047 = icmp eq i64 %.0, 0
  br i1 %.not4047, label %._crit_edge, label %.lr.ph

22:                                               ; preds = %26
  %23 = add i64 %.148, -1
  %.not40 = icmp eq i64 %23, 0
  br i1 %.not40, label %._crit_edge, label %.lr.ph, !llvm.loop !19

.lr.ph:                                           ; preds = %.thread, %22
  %.148 = phi i64 [ %23, %22 ], [ %.0, %.thread ]
  %24 = call i32 @fgetc(ptr noundef nonnull %11)
  %25 = icmp eq i32 %24, -1
  br i1 %25, label %._crit_edge, label %26

26:                                               ; preds = %.lr.ph
  %27 = trunc i32 %24 to i8
  %28 = call i32 @dbuf_putc(ptr noundef nonnull %6, i8 noundef zeroext %27) #29
  %.not41 = icmp eq i32 %28, 0
  br i1 %.not41, label %22, label %29

29:                                               ; preds = %26
  call void @dbuf_free(ptr noundef nonnull %6) #29
  br label %js_std_file_get.exit.thread

._crit_edge:                                      ; preds = %22, %.lr.ph, %.thread
  %30 = load ptr, ptr %6, align 8
  %31 = getelementptr inbounds i8, ptr %6, i64 8
  %32 = load i64, ptr %31, align 8
  %33 = call { i64, i64 } @JS_NewStringLen(ptr noundef %0, ptr noundef %30, i64 noundef %32) #29
  %34 = extractvalue { i64, i64 } %33, 0
  %35 = extractvalue { i64, i64 } %33, 1
  call void @dbuf_free(ptr noundef nonnull %6) #29
  %.sroa.530.0.extract.shift = and i64 %34, -4294967296
  %36 = and i64 %34, 4294967295
  br label %js_std_file_get.exit.thread

js_std_file_get.exit.thread:                      ; preds = %5, %12, %17, %._crit_edge, %29
  %.sroa.029.0 = phi i64 [ %36, %._crit_edge ], [ 0, %29 ], [ 0, %17 ], [ 0, %12 ], [ 0, %5 ]
  %.sroa.530.sroa.0.0 = phi i64 [ %.sroa.530.0.extract.shift, %._crit_edge ], [ 0, %29 ], [ 0, %17 ], [ 0, %12 ], [ 0, %5 ]
  %.sroa.530.sroa.2.0 = phi i64 [ %35, %._crit_edge ], [ 6, %29 ], [ 6, %17 ], [ 6, %12 ], [ 6, %5 ]
  %.sroa.029.0.insert.insert = or disjoint i64 %.sroa.530.sroa.0.0, %.sroa.029.0
  %.fca.0.insert = insertvalue { i64, i64 } poison, i64 %.sroa.029.0.insert.insert, 0
  %.fca.1.insert = insertvalue { i64, i64 } %.fca.0.insert, i64 %.sroa.530.sroa.2.0, 1
  ret { i64, i64 } %.fca.1.insert
}